target datalayout = "e-m:e-p270:32:32-p271:32:32-p272:64:64-i64:64-i128:128-f80:128-n8:16:32:64-S128"
target triple = "x86_64-pc-linux-gnu"

%struct.protoent = type { ptr, ptr, i32 }

@PyExc_OSError = external global ptr, align 8
@.str.60 = private unnamed_addr constant [17 x i8] c"s:getprotobyname\00", align 1
@.str.61 = private unnamed_addr constant [19 x i8] c"protocol not found\00", align 1

; Function Attrs: nounwind uwtable
define internal ptr @socket_getprotobyname(ptr noundef %0, ptr noundef %1) #0 {
  %3 = alloca ptr, align 8
  %4 = alloca ptr, align 8
  %5 = alloca ptr, align 8
  %6 = alloca ptr, align 8
  %7 = alloca ptr, align 8
  %8 = alloca i32, align 4
  %9 = alloca ptr, align 8
  store ptr %0, ptr %4, align 8, !tbaa !3
  store ptr %1, ptr %5, align 8, !tbaa !3
  call void @llvm.lifetime.start.p0(i64 8, ptr %6) #10
  call void @llvm.lifetime.start.p0(i64 8, ptr %7) #10
  %10 = load ptr, ptr %5, align 8, !tbaa !3
  %11 = call i32 (ptr, ptr, ...) @PyArg_ParseTuple(ptr noundef %10, ptr noundef @.str.60, ptr noundef %6)
  %12 = icmp ne i32 %11, 0
  br i1 %12, label %14, label %13

13:                                               ; preds = %2
  store ptr null, ptr %3, align 8
  store i32 1, ptr %8, align 4
  br label %29

14:                                               ; preds = %2
  call void @llvm.lifetime.start.p0(i64 8, ptr %9) #10
  %15 = call ptr @PyEval_SaveThread()
  store ptr %15, ptr %9, align 8, !tbaa !26
  %16 = load ptr, ptr %6, align 8, !tbaa !24
  %17 = call ptr @getprotobyname(ptr noundef %16)
  store ptr %17, ptr %7, align 8, !tbaa !46
  %18 = load ptr, ptr %9, align 8, !tbaa !26
  call void @PyEval_RestoreThread(ptr noundef %18)
  call void @llvm.lifetime.end.p0(i64 8, ptr %9) #10
  %19 = load ptr, ptr %7, align 8, !tbaa !46
  %20 = icmp eq ptr %19, null
  br i1 %20, label %21, label %23

21:                                               ; preds = %14
  %22 = load ptr, ptr @PyExc_OSError, align 8, !tbaa !3
  call void @PyErr_SetString(ptr noundef %22, ptr noundef @.str.61)
  store ptr null, ptr %3, align 8
  store i32 1, ptr %8, align 4
  br label %29

23:                                               ; preds = %14
  %24 = load ptr, ptr %7, align 8, !tbaa !46
  %25 = getelementptr inbounds nuw %struct.protoent, ptr %24, i32 0, i32 2
  %26 = load i32, ptr %25, align 8, !tbaa !48
  %27 = sext i32 %26 to i64
  %28 = call ptr @PyLong_FromLong(i64 noundef %27)
  store ptr %28, ptr %3, align 8
  store i32 1, ptr %8, align 4
  br label %29

29:                                               ; preds = %23, %21, %13
  call void @llvm.lifetime.end.p0(i64 8, ptr %7) #10
  call void @llvm.lifetime.end.p0(i64 8, ptr %6) #10
  %30 = load ptr, ptr %3, align 8
  ret ptr %30
}