; Function Attrs: nounwind uwtable
define internal ptr @socket_getprotobyname(ptr readnone captures(none) %0, ptr noundef %1) #0 {
  %3 = alloca ptr, align 8
  call void @llvm.lifetime.start.p0(i64 8, ptr nonnull %3) #13
  %4 = call i32 (ptr, ptr, ...) @PyArg_ParseTuple(ptr noundef %1, ptr noundef nonnull @.str.60, ptr noundef nonnull %3) #13
  %.not = icmp eq i32 %4, 0
  br i1 %.not, label %17, label %5

5:                                                ; preds = %2
  %6 = call ptr @PyEval_SaveThread() #13
  %7 = load ptr, ptr %3, align 8, !tbaa !20
  %8 = call ptr @getprotobyname(ptr noundef %7) #13
  call void @PyEval_RestoreThread(ptr noundef %6) #13
  %9 = icmp eq ptr %8, null
  br i1 %9, label %10, label %12

10:                                               ; preds = %5
  %11 = load ptr, ptr @PyExc_OSError, align 8, !tbaa !19
  call void @PyErr_SetString(ptr noundef %11, ptr noundef nonnull @.str.61) #13
  br label %17

12:                                               ; preds = %5
  %13 = getelementptr inbounds nuw i8, ptr %8, i64 16
  %14 = load i32, ptr %13, align 8, !tbaa !37
  %15 = sext i32 %14 to i64
  %16 = call ptr @PyLong_FromLong(i64 noundef %15) #13
  br label %17

17:                                               ; preds = %2, %12, %10
  %.0 = phi ptr [ null, %10 ], [ %16, %12 ], [ null, %2 ]
  call void @llvm.lifetime.end.p0(i64 8, ptr nonnull %3) #13
  ret ptr %.0
}